; ModuleID = '10/1191.c'
source_filename = "10/1191.c"
target datalayout = "e-m:e-p270:32:32-p271:32:32-p272:64:64-i64:64-f80:128-n8:16:32:64-S128"
target triple = "x86_64-pc-linux-gnu"

@.str = private unnamed_addr constant [3 x i8] c"%d\00", align 1

; Function Attrs: noinline nounwind uwtable
define dso_local i32 @main() #0 {
  %1 = alloca i32, align 4
  %2 = alloca i32, align 4
  %3 = alloca i32, align 4
  %4 = alloca i32, align 4
  %5 = alloca i32, align 4
  %6 = alloca [30 x i32], align 16
  %7 = alloca [30 x i32], align 16
  store i32 0, i32* %1, align 4
  %8 = getelementptr inbounds [30 x i32], [30 x i32]* %7, i64 0, i64 0
  store i32 1, i32* %8, align 16
  %9 = call i32 (i8*, ...) @__isoc99_scanf(i8* getelementptr inbounds ([3 x i8], [3 x i8]* @.str, i64 0, i64 0), i32* %5)
  store i32 0, i32* %2, align 4
  br label %10

10:                                               ; preds = %56, %0
  %11 = load i32, i32* %2, align 4
  %12 = load i32, i32* %5, align 4
  %13 = icmp slt i32 %11, %12
  br i1 %13, label %14, label %59

14:                                               ; preds = %10
  %15 = load i32, i32* %2, align 4
  %16 = sext i32 %15 to i64
  %17 = getelementptr inbounds [30 x i32], [30 x i32]* %6, i64 0, i64 %16
  %18 = call i32 (i8*, ...) @__isoc99_scanf(i8* getelementptr inbounds ([3 x i8], [3 x i8]* @.str, i64 0, i64 0), i32* %17)
  %19 = load i32, i32* %2, align 4
  %20 = sub nsw i32 %19, 1
  store i32 %20, i32* %3, align 4
  store i32 0, i32* %4, align 4
  br label %21

21:                                               ; preds = %47, %14
  %22 = load i32, i32* %3, align 4
  %23 = icmp sge i32 %22, 0
  br i1 %23, label %24, label %50

24:                                               ; preds = %21
  %25 = load i32, i32* %2, align 4
  %26 = sext i32 %25 to i64
  %27 = getelementptr inbounds [30 x i32], [30 x i32]* %6, i64 0, i64 %26
  %28 = load i32, i32* %27, align 4
  %29 = load i32, i32* %3, align 4
  %30 = sext i32 %29 to i64
  %31 = getelementptr inbounds [30 x i32], [30 x i32]* %6, i64 0, i64 %30
  %32 = load i32, i32* %31, align 4
  %33 = icmp sle i32 %28, %32
  br i1 %33, label %34, label %47

34:                                               ; preds = %24
  %35 = load i32, i32* %4, align 4
  %36 = load i32, i32* %3, align 4
  %37 = sext i32 %36 to i64
  %38 = getelementptr inbounds [30 x i32], [30 x i32]* %7, i64 0, i64 %37
  %39 = load i32, i32* %38, align 4
  %40 = add nsw i32 %39, 1
  %41 = icmp slt i32 %35, %40
  br i1 %41, label %42, label %47

42:                                               ; preds = %34
  %43 = load i32, i32* %3, align 4
  %44 = sext i32 %43 to i64
  %45 = getelementptr inbounds [30 x i32], [30 x i32]* %7, i64 0, i64 %44
  %46 = load i32, i32* %45, align 4
  store i32 %46, i32* %4, align 4
  br label %47

47:                                               ; preds = %42, %34, %24
  %48 = load i32, i32* %3, align 4
  %49 = add nsw i32 %48, -1
  store i32 %49, i32* %3, align 4
  br label %21

50:                                               ; preds = %21
  %51 = load i32, i32* %4, align 4
  %52 = add nsw i32 %51, 1
  %53 = load i32, i32* %2, align 4
  %54 = sext i32 %53 to i64
  %55 = getelementptr inbounds [30 x i32], [30 x i32]* %7, i64 0, i64 %54
  store i32 %52, i32* %55, align 4
  br label %56

56:                                               ; preds = %50
  %57 = load i32, i32* %2, align 4
  %58 = add nsw i32 %57, 1
  store i32 %58, i32* %2, align 4
  br label %10

59:                                               ; preds = %10
  store i32 0, i32* %4, align 4
  store i32 0, i32* %2, align 4
  br label %60

60:                                               ; preds = %77, %59
  %61 = load i32, i32* %2, align 4
  %62 = load i32, i32* %5, align 4
  %63 = icmp slt i32 %61, %62
  br i1 %63, label %64, label %80

64:                                               ; preds = %60
  %65 = load i32, i32* %4, align 4
  %66 = load i32, i32* %2, align 4
  %67 = sext i32 %66 to i64
  %68 = getelementptr inbounds [30 x i32], [30 x i32]* %7, i64 0, i64 %67
  %69 = load i32, i32* %68, align 4
  %70 = icmp slt i32 %65, %69
  br i1 %70, label %71, label %76

71:                                               ; preds = %64
  %72 = load i32, i32* %2, align 4
  %73 = sext i32 %72 to i64
  %74 = getelementptr inbounds [30 x i32], [30 x i32]* %7, i64 0, i64 %73
  %75 = load i32, i32* %74, align 4
  store i32 %75, i32* %4, align 4
  br label %76

76:                                               ; preds = %71, %64
  br label %77

77:                                               ; preds = %76
  %78 = load i32, i32* %2, align 4
  %79 = add nsw i32 %78, 1
  store i32 %79, i32* %2, align 4
  br label %60

80:                                               ; preds = %60
  %81 = load i32, i32* %4, align 4
  %82 = call i32 (i8*, ...) @printf(i8* getelementptr inbounds ([3 x i8], [3 x i8]* @.str, i64 0, i64 0), i32 %81)
  %83 = call i32 @getchar()
  %84 = load i32, i32* %1, align 4
  ret i32 %84
}

declare dso_local i32 @__isoc99_scanf(i8*, ...) #1

declare dso_local i32 @printf(i8*, ...) #1

declare dso_local i32 @getchar() #1


!llvm.module.flags = !{!0}
!llvm.ident = !{!1}

!0 = !{i32 1, !"wchar_size", i32 4}
!1 = !{!"clang version 10.0.0-4ubuntu1 "}
